
InstructionMemory.elf:     file format elf32-avr

Sections:
Idx Name          Size      VMA       LMA       File off  Algn
  0 .text         000000d8  00000000  00000000  00000094  2**1
                  CONTENTS, ALLOC, LOAD, READONLY, CODE
  1 .data         0000001a  00800060  000000d8  0000016c  2**0
                  CONTENTS, ALLOC, LOAD, DATA
  2 .bss          00000002  0080007a  0080007a  00000186  2**0
                  ALLOC
  3 .comment      00000030  00000000  00000000  00000186  2**0
                  CONTENTS, READONLY
  4 .note.gnu.avr.deviceinfo 0000003c  00000000  00000000  000001b8  2**2
                  CONTENTS, READONLY
  5 .debug_aranges 00000020  00000000  00000000  000001f4  2**0
                  CONTENTS, READONLY, DEBUGGING
  6 .debug_info   0000064a  00000000  00000000  00000214  2**0
                  CONTENTS, READONLY, DEBUGGING
  7 .debug_abbrev 0000059e  00000000  00000000  0000085e  2**0
                  CONTENTS, READONLY, DEBUGGING
  8 .debug_line   00000256  00000000  00000000  00000dfc  2**0
                  CONTENTS, READONLY, DEBUGGING
  9 .debug_frame  00000024  00000000  00000000  00001054  2**2
                  CONTENTS, READONLY, DEBUGGING
 10 .debug_str    0000035f  00000000  00000000  00001078  2**0
                  CONTENTS, READONLY, DEBUGGING
 11 .debug_ranges 00000010  00000000  00000000  000013d7  2**0
                  CONTENTS, READONLY, DEBUGGING

Disassembly of section .text:

00000000 <__vectors>:
   0:	0c 94 2a 00 	jmp	0x54	; 0x54 <__ctors_end>
   4:	0c 94 47 00 	jmp	0x8e	; 0x8e <__bad_interrupt>
   8:	0c 94 47 00 	jmp	0x8e	; 0x8e <__bad_interrupt>
   c:	0c 94 47 00 	jmp	0x8e	; 0x8e <__bad_interrupt>
  10:	0c 94 47 00 	jmp	0x8e	; 0x8e <__bad_interrupt>
  14:	0c 94 47 00 	jmp	0x8e	; 0x8e <__bad_interrupt>
  18:	0c 94 47 00 	jmp	0x8e	; 0x8e <__bad_interrupt>
  1c:	0c 94 47 00 	jmp	0x8e	; 0x8e <__bad_interrupt>
  20:	0c 94 47 00 	jmp	0x8e	; 0x8e <__bad_interrupt>
  24:	0c 94 47 00 	jmp	0x8e	; 0x8e <__bad_interrupt>
  28:	0c 94 47 00 	jmp	0x8e	; 0x8e <__bad_interrupt>
  2c:	0c 94 47 00 	jmp	0x8e	; 0x8e <__bad_interrupt>
  30:	0c 94 47 00 	jmp	0x8e	; 0x8e <__bad_interrupt>
  34:	0c 94 47 00 	jmp	0x8e	; 0x8e <__bad_interrupt>
  38:	0c 94 47 00 	jmp	0x8e	; 0x8e <__bad_interrupt>
  3c:	0c 94 47 00 	jmp	0x8e	; 0x8e <__bad_interrupt>
  40:	0c 94 47 00 	jmp	0x8e	; 0x8e <__bad_interrupt>
  44:	0c 94 47 00 	jmp	0x8e	; 0x8e <__bad_interrupt>
  48:	0c 94 47 00 	jmp	0x8e	; 0x8e <__bad_interrupt>
  4c:	0c 94 47 00 	jmp	0x8e	; 0x8e <__bad_interrupt>
  50:	0c 94 47 00 	jmp	0x8e	; 0x8e <__bad_interrupt>

00000054 <__ctors_end>:
  54:	11 24       	eor	r1, r1
  56:	1f be       	out	0x3f, r1	; 63
  58:	cf e5       	ldi	r28, 0x5F	; 95
  5a:	d8 e0       	ldi	r29, 0x08	; 8
  5c:	de bf       	out	0x3e, r29	; 62
  5e:	cd bf       	out	0x3d, r28	; 61

00000060 <__do_copy_data>:
  60:	10 e0       	ldi	r17, 0x00	; 0
  62:	a0 e6       	ldi	r26, 0x60	; 96
  64:	b0 e0       	ldi	r27, 0x00	; 0
  66:	e8 ed       	ldi	r30, 0xD8	; 216
  68:	f0 e0       	ldi	r31, 0x00	; 0
  6a:	02 c0       	rjmp	.+4      	; 0x70 <__do_copy_data+0x10>
  6c:	05 90       	lpm	r0, Z+
  6e:	0d 92       	st	X+, r0
  70:	aa 37       	cpi	r26, 0x7A	; 122
  72:	b1 07       	cpc	r27, r17
  74:	d9 f7       	brne	.-10     	; 0x6c <__do_copy_data+0xc>

00000076 <__do_clear_bss>:
  76:	20 e0       	ldi	r18, 0x00	; 0
  78:	aa e7       	ldi	r26, 0x7A	; 122
  7a:	b0 e0       	ldi	r27, 0x00	; 0
  7c:	01 c0       	rjmp	.+2      	; 0x80 <.do_clear_bss_start>

0000007e <.do_clear_bss_loop>:
  7e:	1d 92       	st	X+, r1

00000080 <.do_clear_bss_start>:
  80:	ac 37       	cpi	r26, 0x7C	; 124
  82:	b2 07       	cpc	r27, r18
  84:	e1 f7       	brne	.-8      	; 0x7e <.do_clear_bss_loop>
  86:	0e 94 49 00 	call	0x92	; 0x92 <main>
  8a:	0c 94 6a 00 	jmp	0xd4	; 0xd4 <_exit>

0000008e <__bad_interrupt>:
  8e:	0c 94 00 00 	jmp	0	; 0x0 <__vectors>

00000092 <main>:

int main(void)
{
	 
	// setting up input output mode
    DDRA = 0b00000000;	// input pc
  92:	1a ba       	out	0x1a, r1	; 26
	PORTA = 0x00;
  94:	1b ba       	out	0x1b, r1	; 27
	
	// Instruction : D[7:0]B[7:0]
	DDRB = 0b11111111;	// lower 8-bits of instruction
  96:	8f ef       	ldi	r24, 0xFF	; 255
  98:	87 bb       	out	0x17, r24	; 23
	DDRD = 0b11111111;	// upper 8-bits of instruction
  9a:	81 bb       	out	0x11, r24	; 17
	
	while (1) 
    {
		if (PINA != pc) {	// checking if pc is same is previous, would be a mistake
  9c:	99 b3       	in	r25, 0x19	; 25
  9e:	80 91 60 00 	lds	r24, 0x0060	; 0x800060 <__DATA_REGION_ORIGIN__>
  a2:	98 17       	cp	r25, r24
  a4:	d9 f3       	breq	.-10     	; 0x9c <main+0xa>
			pc = PINA;
  a6:	e9 b3       	in	r30, 0x19	; 25
  a8:	e0 93 60 00 	sts	0x0060, r30	; 0x800060 <__DATA_REGION_ORIGIN__>
			instruction = INSTRUCTIONS[pc];
  ac:	f0 e0       	ldi	r31, 0x00	; 0
  ae:	ee 0f       	add	r30, r30
  b0:	ff 1f       	adc	r31, r31
  b2:	ef 59       	subi	r30, 0x9F	; 159
  b4:	ff 4f       	sbci	r31, 0xFF	; 255
  b6:	90 81       	ld	r25, Z
  b8:	81 81       	ldd	r24, Z+1	; 0x01
  ba:	90 93 7a 00 	sts	0x007A, r25	; 0x80007a <__data_end>
  be:	80 93 7b 00 	sts	0x007B, r24	; 0x80007b <__data_end+0x1>
			PORTB = (uint8_t) instruction;
  c2:	98 bb       	out	0x18, r25	; 24
			PORTD = (uint8_t) (instruction >> 8); 
  c4:	82 bb       	out	0x12, r24	; 18
	#else
		//round up by default
		__ticks_dc = (uint32_t)(ceil(fabs(__tmp)));
	#endif

	__builtin_avr_delay_cycles(__ticks_dc);
  c6:	83 ed       	ldi	r24, 0xD3	; 211
  c8:	90 e3       	ldi	r25, 0x30	; 48
  ca:	01 97       	sbiw	r24, 0x01	; 1
  cc:	f1 f7       	brne	.-4      	; 0xca <main+0x38>
  ce:	00 c0       	rjmp	.+0      	; 0xd0 <main+0x3e>
  d0:	00 00       	nop
  d2:	e4 cf       	rjmp	.-56     	; 0x9c <main+0xa>

000000d4 <_exit>:
  d4:	f8 94       	cli

000000d6 <__stop_program>:
  d6:	ff cf       	rjmp	.-2      	; 0xd6 <__stop_program>
